; Function Attrs: mustprogress uwtable
define hidden void @_ZNK4cvc58internal13FloatingPoint6negateEv(ptr dead_on_unwind noalias writable writeonly sret(%"class.cvc5::internal::FloatingPoint") align 8 captures(none) %0, ptr noundef nonnull readonly align 8 captures(none) dereferenceable(8) %1) local_unnamed_addr #3 align 2 personality ptr @__gxx_personality_v0 {
  %3 = tail call noalias noundef nonnull dereferenceable(64) ptr @_Znwm(i64 noundef 64) #17
  %4 = load ptr, ptr %1, align 8, !tbaa !3
  invoke void @_ZNK4cvc58internal20FloatingPointLiteral6negateEv(ptr dead_on_unwind nonnull writable sret(%"class.cvc5::internal::FloatingPointLiteral") align 8 %3, ptr noundef nonnull align 8 dereferenceable(64) %4)
          to label %5 unwind label %6

5:                                                ; preds = %2
  store ptr %3, ptr %0, align 8, !tbaa !3
  ret void

6:                                                ; preds = %2
  %7 = landingpad { ptr, i32 }
          cleanup
  tail call void @_ZdlPvm(ptr noundef nonnull %3, i64 noundef 64) #18
  resume { ptr, i32 } %7
}